(lp0
VQ979168
p1
aVQ30141616
p2
aVQ30141302
p3
aVQ30141343
p4
aVQ30141359
p5
aVQ30141517
p6
aVQ30141399
p7
aVQ30141432
p8
aVQ30141385
p9
aVQ30141414
p10
aVQ30141588
p11
aVQ7933601
p12
aVQ545365
p13
aVQ1869874
p14
aVQ751641
p15
aVQ394129
p16
aVQ189643
p17
aVQ2836
p18
aVQ130741
p19
aVQ267907
p20
aVQ185935
p21
aVQ188611
p22
aVQ4340209
p23
aVQ9690
p24
aVQ133244
p25
aVQ183425
p26
aVQ718113
p27
aVQ3503092
p28
aVQ1362864
p29
aVQ8038367
p30
aVQ188008
p31
aVQ9690
p32
aVQ152234
p33
aVQ183425
p34
aVQ38933
p35
aVQ9690
p36
aVQ254327
p37
aVQ403648
p38
aVQ40878
p39
aVQ718113
p40
aVQ178436
p41
aVQ189470
p42
aVQ683498
p43
aVQ189956
p44
aVQ6452285
p45
aVQ673083
p46
a.